target datalayout = "e-m:e-p270:32:32-p271:32:32-p272:64:64-i64:64-i128:128-f80:128-n8:16:32:64-S128"
target triple = "x86_64-unknown-linux-gnu"

%"class.rocksdb::Slice" = type { ptr, i64 }
%"class.std::__cxx11::basic_string" = type { %"struct.std::__cxx11::basic_string<char>::_Alloc_hider", i64, %union.anon }
%"struct.std::__cxx11::basic_string<char>::_Alloc_hider" = type { ptr }
%union.anon = type { i64, [8 x i8] }
%"class.rocksdb::(anonymous namespace)::SkipListRep" = type { %"class.rocksdb::MemTableRep", %"class.rocksdb::InlineSkipList", ptr, ptr, i64 }
%"class.rocksdb::MemTableRep" = type { ptr, ptr }
%"class.rocksdb::InlineSkipList" = type { i16, i16, i32, ptr, ptr, ptr, %"struct.std::atomic", ptr }
%"struct.std::atomic" = type { %"struct.std::__atomic_base" }
%"struct.std::__atomic_base" = type { i32 }
%"class.rocksdb::MemTableRep::Iterator" = type { ptr }
%"class.rocksdb::InlineSkipList<const rocksdb::MemTableRep::KeyComparator &>::Iterator" = type { ptr, ptr }
%"struct.rocksdb::InlineSkipList<const rocksdb::MemTableRep::KeyComparator &>::Node" = type { [1 x %"struct.std::atomic.29"] }
%"struct.std::atomic.29" = type { %"struct.std::__atomic_base.30" }
%"struct.std::__atomic_base.30" = type { ptr }
%"class.rocksdb::(anonymous namespace)::SkipListRep::LookaheadIterator" = type { %"class.rocksdb::MemTableRep::Iterator", %"class.std::__cxx11::basic_string", ptr, %"class.rocksdb::InlineSkipList<const rocksdb::MemTableRep::KeyComparator &>::Iterator", %"class.rocksdb::InlineSkipList<const rocksdb::MemTableRep::KeyComparator &>::Iterator" }

; Function Attrs: mustprogress nounwind uwtable
define linkonce_odr noundef i32 @_ZStanSt12memory_orderSt23__memory_order_modifier(i32 noundef %__m, i32 noundef %__mod) #1 comdat {
entry:
  %__m.addr = alloca i32, align 4
  %__mod.addr = alloca i32, align 4
  store i32 %__m, ptr %__m.addr, align 4
  store i32 %__mod, ptr %__mod.addr, align 4
  %0 = load i32, ptr %__m.addr, align 4
  %1 = load i32, ptr %__mod.addr, align 4
  %and = and i32 %0, %1
  ret i32 %and
}

; Function Attrs: mustprogress nounwind uwtable
define linkonce_odr noundef ptr @_ZNKSt6atomicIPN7rocksdb14InlineSkipListIRKNS0_11MemTableRep13KeyComparatorEE4NodeEE4loadESt12memory_order(ptr noundef nonnull align 8 dereferenceable(8) %this, i32 noundef %__m) #1 comdat align 2 {
entry:
  %this.addr.i = alloca ptr, align 8
  %__m.addr.i = alloca i32, align 4
  %__b.i = alloca i32, align 4
  %atomic-temp.i = alloca ptr, align 8
  %this.addr = alloca ptr, align 8
  %__m.addr = alloca i32, align 4
  store ptr %this, ptr %this.addr, align 8
  store i32 %__m, ptr %__m.addr, align 4
  %this1 = load ptr, ptr %this.addr, align 8
  %_M_b = getelementptr inbounds %"struct.std::atomic.29", ptr %this1, i32 0, i32 0
  %0 = load i32, ptr %__m.addr, align 4
  store ptr %_M_b, ptr %this.addr.i, align 8
  store i32 %0, ptr %__m.addr.i, align 4
  %this1.i = load ptr, ptr %this.addr.i, align 8
  %1 = load i32, ptr %__m.addr.i, align 4
  %call.i = call noundef i32 @_ZStanSt12memory_orderSt23__memory_order_modifier(i32 noundef %1, i32 noundef 65535)
  store i32 %call.i, ptr %__b.i, align 4
  %2 = load i32, ptr %__m.addr.i, align 4
  switch i32 %2, label %monotonic.i [
    i32 1, label %acquire.i
    i32 2, label %acquire.i
    i32 5, label %seqcst.i
  ]

monotonic.i:                                      ; preds = %entry
  %3 = load atomic i64, ptr %this1.i monotonic, align 8
  store i64 %3, ptr %atomic-temp.i, align 8
  br label %_ZNKSt13__atomic_baseIPN7rocksdb14InlineSkipListIRKNS0_11MemTableRep13KeyComparatorEE4NodeEE4loadESt12memory_order.exit

acquire.i:                                        ; preds = %entry, %entry
  %4 = load atomic i64, ptr %this1.i acquire, align 8
  store i64 %4, ptr %atomic-temp.i, align 8
  br label %_ZNKSt13__atomic_baseIPN7rocksdb14InlineSkipListIRKNS0_11MemTableRep13KeyComparatorEE4NodeEE4loadESt12memory_order.exit

seqcst.i:                                         ; preds = %entry
  %5 = load atomic i64, ptr %this1.i seq_cst, align 8
  store i64 %5, ptr %atomic-temp.i, align 8
  br label %_ZNKSt13__atomic_baseIPN7rocksdb14InlineSkipListIRKNS0_11MemTableRep13KeyComparatorEE4NodeEE4loadESt12memory_order.exit

_ZNKSt13__atomic_baseIPN7rocksdb14InlineSkipListIRKNS0_11MemTableRep13KeyComparatorEE4NodeEE4loadESt12memory_order.exit: ; preds = %seqcst.i, %acquire.i, %monotonic.i
  %6 = load ptr, ptr %atomic-temp.i, align 8
  ret ptr %6
}

; Function Attrs: mustprogress nounwind uwtable
define linkonce_odr noundef ptr @_ZN7rocksdb14InlineSkipListIRKNS_11MemTableRep13KeyComparatorEE4Node4NextEi(ptr noundef nonnull align 8 dereferenceable(8) %this, i32 noundef %n) #1 comdat align 2 {
entry:
  %this.addr = alloca ptr, align 8
  %n.addr = alloca i32, align 4
  store ptr %this, ptr %this.addr, align 8
  store i32 %n, ptr %n.addr, align 4
  %this1 = load ptr, ptr %this.addr, align 8
  %next_ = getelementptr inbounds %"struct.rocksdb::InlineSkipList<const rocksdb::MemTableRep::KeyComparator &>::Node", ptr %this1, i32 0, i32 0
  %arrayidx = getelementptr inbounds [1 x %"struct.std::atomic.29"], ptr %next_, i64 0, i64 0
  %0 = load i32, ptr %n.addr, align 4
  %idx.ext = sext i32 %0 to i64
  %idx.neg = sub i64 0, %idx.ext
  %add.ptr = getelementptr inbounds %"struct.std::atomic.29", ptr %arrayidx, i64 %idx.neg
  %call = call noundef ptr @_ZNKSt6atomicIPN7rocksdb14InlineSkipListIRKNS0_11MemTableRep13KeyComparatorEE4NodeEE4loadESt12memory_order(ptr noundef nonnull align 8 dereferenceable(8) %add.ptr, i32 noundef 2) #3
  ret ptr %call
}

; Function Attrs: mustprogress nounwind uwtable
define linkonce_odr noundef ptr @_ZNK7rocksdb14InlineSkipListIRKNS_11MemTableRep13KeyComparatorEE4Node3KeyEv(ptr noundef nonnull align 8 dereferenceable(8) %this) #1 comdat align 2 {
entry:
  %this.addr = alloca ptr, align 8
  store ptr %this, ptr %this.addr, align 8
  %this1 = load ptr, ptr %this.addr, align 8
  %next_ = getelementptr inbounds %"struct.rocksdb::InlineSkipList<const rocksdb::MemTableRep::KeyComparator &>::Node", ptr %this1, i32 0, i32 0
  %arrayidx = getelementptr inbounds [1 x %"struct.std::atomic.29"], ptr %next_, i64 0, i64 1
  ret ptr %arrayidx
}

; Function Attrs: mustprogress nounwind uwtable
define linkonce_odr void @_ZN7rocksdb14InlineSkipListIRKNS_11MemTableRep13KeyComparatorEE8Iterator4NextEv(ptr noundef nonnull align 8 dereferenceable(16) %this) #1 comdat align 2 {
entry:
  %this.addr = alloca ptr, align 8
  store ptr %this, ptr %this.addr, align 8
  %this1 = load ptr, ptr %this.addr, align 8
  %node_ = getelementptr inbounds %"class.rocksdb::InlineSkipList<const rocksdb::MemTableRep::KeyComparator &>::Iterator", ptr %this1, i32 0, i32 1
  %0 = load ptr, ptr %node_, align 8
  %call = call noundef ptr @_ZN7rocksdb14InlineSkipListIRKNS_11MemTableRep13KeyComparatorEE4Node4NextEi(ptr noundef nonnull align 8 dereferenceable(8) %0, i32 noundef 0)
  %node_2 = getelementptr inbounds %"class.rocksdb::InlineSkipList<const rocksdb::MemTableRep::KeyComparator &>::Iterator", ptr %this1, i32 0, i32 1
  store ptr %call, ptr %node_2, align 8
  ret void
}

; Function Attrs: mustprogress nounwind uwtable
define linkonce_odr noundef i32 @_ZNK7rocksdb5Slice7compareERKS0_(ptr noundef nonnull align 8 dereferenceable(16) %this, ptr noundef nonnull align 8 dereferenceable(16) %b) #1 comdat align 2 {
entry:
  %this.addr = alloca ptr, align 8
  %b.addr = alloca ptr, align 8
  %min_len = alloca i64, align 8
  %r = alloca i32, align 4
  store ptr %this, ptr %this.addr, align 8
  store ptr %b, ptr %b.addr, align 8
  %this1 = load ptr, ptr %this.addr, align 8
  %size_ = getelementptr inbounds %"class.rocksdb::Slice", ptr %this1, i32 0, i32 1
  %0 = load i64, ptr %size_, align 8
  %1 = load ptr, ptr %b.addr, align 8
  %size_2 = getelementptr inbounds %"class.rocksdb::Slice", ptr %1, i32 0, i32 1
  %2 = load i64, ptr %size_2, align 8
  %cmp = icmp ult i64 %0, %2
  br i1 %cmp, label %cond.true, label %cond.false

cond.true:                                        ; preds = %entry
  %size_3 = getelementptr inbounds %"class.rocksdb::Slice", ptr %this1, i32 0, i32 1
  %3 = load i64, ptr %size_3, align 8
  br label %cond.end

cond.false:                                       ; preds = %entry
  %4 = load ptr, ptr %b.addr, align 8
  %size_4 = getelementptr inbounds %"class.rocksdb::Slice", ptr %4, i32 0, i32 1
  %5 = load i64, ptr %size_4, align 8
  br label %cond.end

cond.end:                                         ; preds = %cond.false, %cond.true
  %cond = phi i64 [ %3, %cond.true ], [ %5, %cond.false ]
  store i64 %cond, ptr %min_len, align 8
  %data_ = getelementptr inbounds %"class.rocksdb::Slice", ptr %this1, i32 0, i32 0
  %6 = load ptr, ptr %data_, align 8
  %7 = load ptr, ptr %b.addr, align 8
  %data_5 = getelementptr inbounds %"class.rocksdb::Slice", ptr %7, i32 0, i32 0
  %8 = load ptr, ptr %data_5, align 8
  %9 = load i64, ptr %min_len, align 8
  %call = call i32 @memcmp(ptr noundef %6, ptr noundef %8, i64 noundef %9) #22
  store i32 %call, ptr %r, align 4
  %10 = load i32, ptr %r, align 4
  %cmp6 = icmp eq i32 %10, 0
  br i1 %cmp6, label %if.then, label %if.end16

if.then:                                          ; preds = %cond.end
  %size_7 = getelementptr inbounds %"class.rocksdb::Slice", ptr %this1, i32 0, i32 1
  %11 = load i64, ptr %size_7, align 8
  %12 = load ptr, ptr %b.addr, align 8
  %size_8 = getelementptr inbounds %"class.rocksdb::Slice", ptr %12, i32 0, i32 1
  %13 = load i64, ptr %size_8, align 8
  %cmp9 = icmp ult i64 %11, %13
  br i1 %cmp9, label %if.then10, label %if.else

if.then10:                                        ; preds = %if.then
  store i32 -1, ptr %r, align 4
  br label %if.end15

if.else:                                          ; preds = %if.then
  %size_11 = getelementptr inbounds %"class.rocksdb::Slice", ptr %this1, i32 0, i32 1
  %14 = load i64, ptr %size_11, align 8
  %15 = load ptr, ptr %b.addr, align 8
  %size_12 = getelementptr inbounds %"class.rocksdb::Slice", ptr %15, i32 0, i32 1
  %16 = load i64, ptr %size_12, align 8
  %cmp13 = icmp ugt i64 %14, %16
  br i1 %cmp13, label %if.then14, label %if.end

if.then14:                                        ; preds = %if.else
  store i32 1, ptr %r, align 4
  br label %if.end

if.end:                                           ; preds = %if.then14, %if.else
  br label %if.end15

if.end15:                                         ; preds = %if.end, %if.then10
  br label %if.end16

if.end16:                                         ; preds = %if.end15, %cond.end
  %17 = load i32, ptr %r, align 4
  ret i32 %17
}

; Function Attrs: mustprogress nounwind uwtable
define linkonce_odr noundef ptr @_ZNK7rocksdb14InlineSkipListIRKNS_11MemTableRep13KeyComparatorEE8Iterator3keyEv(ptr noundef nonnull align 8 dereferenceable(16) %this) #1 comdat align 2 {
entry:
  %this.addr = alloca ptr, align 8
  store ptr %this, ptr %this.addr, align 8
  %this1 = load ptr, ptr %this.addr, align 8
  %node_ = getelementptr inbounds %"class.rocksdb::InlineSkipList<const rocksdb::MemTableRep::KeyComparator &>::Iterator", ptr %this1, i32 0, i32 1
  %0 = load ptr, ptr %node_, align 8
  %call = call noundef ptr @_ZNK7rocksdb14InlineSkipListIRKNS_11MemTableRep13KeyComparatorEE4Node3KeyEv(ptr noundef nonnull align 8 dereferenceable(8) %0)
  ret ptr %call
}

; Function Attrs: mustprogress nounwind uwtable
define linkonce_odr noundef zeroext i1 @_ZNK7rocksdb14InlineSkipListIRKNS_11MemTableRep13KeyComparatorEE8Iterator5ValidEv(ptr noundef nonnull align 8 dereferenceable(16) %this) #1 comdat align 2 {
entry:
  %this.addr = alloca ptr, align 8
  store ptr %this, ptr %this.addr, align 8
  %this1 = load ptr, ptr %this.addr, align 8
  %node_ = getelementptr inbounds %"class.rocksdb::InlineSkipList<const rocksdb::MemTableRep::KeyComparator &>::Iterator", ptr %this1, i32 0, i32 1
  %0 = load ptr, ptr %node_, align 8
  %cmp = icmp ne ptr %0, null
  ret i1 %cmp
}

; Function Attrs: mustprogress uwtable
define internal void @_ZN7rocksdb12_GLOBAL__N_111SkipListRep17LookaheadIterator4NextEv(ptr noundef nonnull align 8 dereferenceable(80) %this) unnamed_addr #0 align 2 {
entry:
  %this.addr = alloca ptr, align 8
  %advance_prev = alloca i8, align 1
  %k1 = alloca %"class.rocksdb::Slice", align 8
  %k2 = alloca %"class.rocksdb::Slice", align 8
  %t1 = alloca %"class.rocksdb::Slice", align 8
  %t2 = alloca %"class.rocksdb::Slice", align 8
  store ptr %this, ptr %this.addr, align 8
  %this1 = load ptr, ptr %this.addr, align 8
  store i8 1, ptr %advance_prev, align 1
  %prev_ = getelementptr inbounds %"class.rocksdb::(anonymous namespace)::SkipListRep::LookaheadIterator", ptr %this1, i32 0, i32 4
  %call = call noundef zeroext i1 @_ZNK7rocksdb14InlineSkipListIRKNS_11MemTableRep13KeyComparatorEE8Iterator5ValidEv(ptr noundef nonnull align 8 dereferenceable(16) %prev_)
  br i1 %call, label %if.then, label %if.end27

if.then:                                          ; preds = %entry
  %rep_ = getelementptr inbounds %"class.rocksdb::(anonymous namespace)::SkipListRep::LookaheadIterator", ptr %this1, i32 0, i32 2
  %0 = load ptr, ptr %rep_, align 8
  %prev_2 = getelementptr inbounds %"class.rocksdb::(anonymous namespace)::SkipListRep::LookaheadIterator", ptr %this1, i32 0, i32 4
  %call3 = call noundef ptr @_ZNK7rocksdb14InlineSkipListIRKNS_11MemTableRep13KeyComparatorEE8Iterator3keyEv(ptr noundef nonnull align 8 dereferenceable(16) %prev_2)
  %vtable = load ptr, ptr %0, align 8
  %vfn = getelementptr inbounds ptr, ptr %vtable, i64 22
  %1 = load ptr, ptr %vfn, align 8
  %call4 = call { ptr, i64 } %1(ptr noundef nonnull align 8 dereferenceable(16) %0, ptr noundef %call3)
  %2 = getelementptr inbounds { ptr, i64 }, ptr %k1, i32 0, i32 0
  %3 = extractvalue { ptr, i64 } %call4, 0
  store ptr %3, ptr %2, align 8
  %4 = getelementptr inbounds { ptr, i64 }, ptr %k1, i32 0, i32 1
  %5 = extractvalue { ptr, i64 } %call4, 1
  store i64 %5, ptr %4, align 8
  %rep_5 = getelementptr inbounds %"class.rocksdb::(anonymous namespace)::SkipListRep::LookaheadIterator", ptr %this1, i32 0, i32 2
  %6 = load ptr, ptr %rep_5, align 8
  %iter_ = getelementptr inbounds %"class.rocksdb::(anonymous namespace)::SkipListRep::LookaheadIterator", ptr %this1, i32 0, i32 3
  %call6 = call noundef ptr @_ZNK7rocksdb14InlineSkipListIRKNS_11MemTableRep13KeyComparatorEE8Iterator3keyEv(ptr noundef nonnull align 8 dereferenceable(16) %iter_)
  %vtable7 = load ptr, ptr %6, align 8
  %vfn8 = getelementptr inbounds ptr, ptr %vtable7, i64 22
  %7 = load ptr, ptr %vfn8, align 8
  %call9 = call { ptr, i64 } %7(ptr noundef nonnull align 8 dereferenceable(16) %6, ptr noundef %call6)
  %8 = getelementptr inbounds { ptr, i64 }, ptr %k2, i32 0, i32 0
  %9 = extractvalue { ptr, i64 } %call9, 0
  store ptr %9, ptr %8, align 8
  %10 = getelementptr inbounds { ptr, i64 }, ptr %k2, i32 0, i32 1
  %11 = extractvalue { ptr, i64 } %call9, 1
  store i64 %11, ptr %10, align 8
  %call10 = call noundef i32 @_ZNK7rocksdb5Slice7compareERKS0_(ptr noundef nonnull align 8 dereferenceable(16) %k1, ptr noundef nonnull align 8 dereferenceable(16) %k2)
  %cmp = icmp eq i32 %call10, 0
  br i1 %cmp, label %if.then11, label %if.else

if.then11:                                        ; preds = %if.then
  store i8 0, ptr %advance_prev, align 1
  br label %if.end26

if.else:                                          ; preds = %if.then
  %rep_12 = getelementptr inbounds %"class.rocksdb::(anonymous namespace)::SkipListRep::LookaheadIterator", ptr %this1, i32 0, i32 2
  %12 = load ptr, ptr %rep_12, align 8
  %transform_ = getelementptr inbounds %"class.rocksdb::(anonymous namespace)::SkipListRep", ptr %12, i32 0, i32 3
  %13 = load ptr, ptr %transform_, align 8
  %tobool = icmp ne ptr %13, null
  br i1 %tobool, label %if.then13, label %if.end

if.then13:                                        ; preds = %if.else
  %rep_14 = getelementptr inbounds %"class.rocksdb::(anonymous namespace)::SkipListRep::LookaheadIterator", ptr %this1, i32 0, i32 2
  %14 = load ptr, ptr %rep_14, align 8
  %transform_15 = getelementptr inbounds %"class.rocksdb::(anonymous namespace)::SkipListRep", ptr %14, i32 0, i32 3
  %15 = load ptr, ptr %transform_15, align 8
  %vtable16 = load ptr, ptr %15, align 8
  %vfn17 = getelementptr inbounds ptr, ptr %vtable16, i64 19
  %16 = load ptr, ptr %vfn17, align 8
  %call18 = call { ptr, i64 } %16(ptr noundef nonnull align 8 dereferenceable(32) %15, ptr noundef nonnull align 8 dereferenceable(16) %k1)
  %17 = getelementptr inbounds { ptr, i64 }, ptr %t1, i32 0, i32 0
  %18 = extractvalue { ptr, i64 } %call18, 0
  store ptr %18, ptr %17, align 8
  %19 = getelementptr inbounds { ptr, i64 }, ptr %t1, i32 0, i32 1
  %20 = extractvalue { ptr, i64 } %call18, 1
  store i64 %20, ptr %19, align 8
  %rep_19 = getelementptr inbounds %"class.rocksdb::(anonymous namespace)::SkipListRep::LookaheadIterator", ptr %this1, i32 0, i32 2
  %21 = load ptr, ptr %rep_19, align 8
  %transform_20 = getelementptr inbounds %"class.rocksdb::(anonymous namespace)::SkipListRep", ptr %21, i32 0, i32 3
  %22 = load ptr, ptr %transform_20, align 8
  %vtable21 = load ptr, ptr %22, align 8
  %vfn22 = getelementptr inbounds ptr, ptr %vtable21, i64 19
  %23 = load ptr, ptr %vfn22, align 8
  %call23 = call { ptr, i64 } %23(ptr noundef nonnull align 8 dereferenceable(32) %22, ptr noundef nonnull align 8 dereferenceable(16) %k2)
  %24 = getelementptr inbounds { ptr, i64 }, ptr %t2, i32 0, i32 0
  %25 = extractvalue { ptr, i64 } %call23, 0
  store ptr %25, ptr %24, align 8
  %26 = getelementptr inbounds { ptr, i64 }, ptr %t2, i32 0, i32 1
  %27 = extractvalue { ptr, i64 } %call23, 1
  store i64 %27, ptr %26, align 8
  %call24 = call noundef i32 @_ZNK7rocksdb5Slice7compareERKS0_(ptr noundef nonnull align 8 dereferenceable(16) %t1, ptr noundef nonnull align 8 dereferenceable(16) %t2)
  %cmp25 = icmp eq i32 %call24, 0
  %frombool = zext i1 %cmp25 to i8
  store i8 %frombool, ptr %advance_prev, align 1
  br label %if.end

if.end:                                           ; preds = %if.then13, %if.else
  br label %if.end26

if.end26:                                         ; preds = %if.end, %if.then11
  br label %if.end27

if.end27:                                         ; preds = %if.end26, %entry
  %28 = load i8, ptr %advance_prev, align 1
  %tobool28 = trunc i8 %28 to i1
  br i1 %tobool28, label %if.then29, label %if.end32

if.then29:                                        ; preds = %if.end27
  %iter_30 = getelementptr inbounds %"class.rocksdb::(anonymous namespace)::SkipListRep::LookaheadIterator", ptr %this1, i32 0, i32 3
  %prev_31 = getelementptr inbounds %"class.rocksdb::(anonymous namespace)::SkipListRep::LookaheadIterator", ptr %this1, i32 0, i32 4
  call void @llvm.memcpy.p0.p0.i64(ptr align 8 %prev_31, ptr align 8 %iter_30, i64 16, i1 false)
  br label %if.end32

if.end32:                                         ; preds = %if.then29, %if.end27
  %iter_33 = getelementptr inbounds %"class.rocksdb::(anonymous namespace)::SkipListRep::LookaheadIterator", ptr %this1, i32 0, i32 3
  call void @_ZN7rocksdb14InlineSkipListIRKNS_11MemTableRep13KeyComparatorEE8Iterator4NextEv(ptr noundef nonnull align 8 dereferenceable(16) %iter_33)
  ret void
}