; Function Attrs: mustprogress uwtable
define internal void @_ZN7rocksdb12_GLOBAL__N_111SkipListRep17LookaheadIterator4NextEv(ptr nocapture noundef nonnull align 8 dereferenceable(80) %this) unnamed_addr #3 align 2 {
entry:
  %k1 = alloca %"class.rocksdb::Slice", align 8
  %k2 = alloca %"class.rocksdb::Slice", align 8
  %prev_ = getelementptr inbounds i8, ptr %this, i64 64
  %node_.i = getelementptr inbounds i8, ptr %this, i64 72
  %0 = load ptr, ptr %node_.i, align 8
  %cmp.i.not = icmp eq ptr %0, null
  br i1 %cmp.i.not, label %if.then29, label %if.then

if.then:                                          ; preds = %entry
  %rep_ = getelementptr inbounds i8, ptr %this, i64 40
  %1 = load ptr, ptr %rep_, align 8
  %arrayidx.i.i = getelementptr inbounds i8, ptr %0, i64 8
  %vtable = load ptr, ptr %1, align 8
  %vfn = getelementptr inbounds i8, ptr %vtable, i64 176
  %2 = load ptr, ptr %vfn, align 8
  %call4 = tail call { ptr, i64 } %2(ptr noundef nonnull align 8 dereferenceable(16) %1, ptr noundef nonnull %arrayidx.i.i)
  %3 = extractvalue { ptr, i64 } %call4, 0
  store ptr %3, ptr %k1, align 8
  %4 = getelementptr inbounds i8, ptr %k1, i64 8
  %5 = extractvalue { ptr, i64 } %call4, 1
  store i64 %5, ptr %4, align 8
  %6 = load ptr, ptr %rep_, align 8
  %node_.i2 = getelementptr inbounds i8, ptr %this, i64 56
  %7 = load ptr, ptr %node_.i2, align 8
  %arrayidx.i.i3 = getelementptr inbounds i8, ptr %7, i64 8
  %vtable7 = load ptr, ptr %6, align 8
  %vfn8 = getelementptr inbounds i8, ptr %vtable7, i64 176
  %8 = load ptr, ptr %vfn8, align 8
  %call9 = tail call { ptr, i64 } %8(ptr noundef nonnull align 8 dereferenceable(16) %6, ptr noundef nonnull %arrayidx.i.i3)
  %9 = extractvalue { ptr, i64 } %call9, 0
  store ptr %9, ptr %k2, align 8
  %10 = getelementptr inbounds i8, ptr %k2, i64 8
  %11 = extractvalue { ptr, i64 } %call9, 1
  store i64 %11, ptr %10, align 8
  %..i = tail call i64 @llvm.umin.i64(i64 %5, i64 %11)
  %bcmp = tail call i32 @bcmp(ptr %3, ptr %9, i64 %..i)
  %cmp6.not.i = icmp eq i32 %bcmp, 0
  %cmp16 = icmp eq i64 %5, %11
  %cmp = select i1 %cmp6.not.i, i1 %cmp16, i1 false
  br i1 %cmp, label %if.end32, label %if.else

if.else:                                          ; preds = %if.then
  %12 = load ptr, ptr %rep_, align 8
  %transform_ = getelementptr inbounds i8, ptr %12, i64 72
  %13 = load ptr, ptr %transform_, align 8
  %tobool.not = icmp eq ptr %13, null
  br i1 %tobool.not, label %if.then29, label %if.then13

if.then13:                                        ; preds = %if.else
  %vtable16 = load ptr, ptr %13, align 8
  %vfn17 = getelementptr inbounds i8, ptr %vtable16, i64 152
  %14 = load ptr, ptr %vfn17, align 8
  %call18 = call { ptr, i64 } %14(ptr noundef nonnull align 8 dereferenceable(32) %13, ptr noundef nonnull align 8 dereferenceable(16) %k1)
  %15 = extractvalue { ptr, i64 } %call18, 0
  %16 = extractvalue { ptr, i64 } %call18, 1
  %17 = load ptr, ptr %rep_, align 8
  %transform_20 = getelementptr inbounds i8, ptr %17, i64 72
  %18 = load ptr, ptr %transform_20, align 8
  %vtable21 = load ptr, ptr %18, align 8
  %vfn22 = getelementptr inbounds i8, ptr %vtable21, i64 152
  %19 = load ptr, ptr %vfn22, align 8
  %call23 = call { ptr, i64 } %19(ptr noundef nonnull align 8 dereferenceable(32) %18, ptr noundef nonnull align 8 dereferenceable(16) %k2)
  %20 = extractvalue { ptr, i64 } %call23, 0
  %21 = extractvalue { ptr, i64 } %call23, 1
  %..i8 = call i64 @llvm.umin.i64(i64 %16, i64 %21)
  %bcmp20 = call i32 @bcmp(ptr %15, ptr %20, i64 %..i8)
  %cmp6.not.i10 = icmp eq i32 %bcmp20, 0
  %cmp2518 = icmp eq i64 %16, %21
  %cmp25 = select i1 %cmp6.not.i10, i1 %cmp2518, i1 false
  br i1 %cmp25, label %if.then29, label %if.end32

if.then29:                                        ; preds = %if.else, %entry, %if.then13
  %iter_30 = getelementptr inbounds i8, ptr %this, i64 48
  call void @llvm.memcpy.p0.p0.i64(ptr noundef nonnull align 8 dereferenceable(16) %prev_, ptr noundef nonnull align 8 dereferenceable(16) %iter_30, i64 16, i1 false)
  br label %if.end32

if.end32:                                         ; preds = %if.then, %if.then29, %if.then13
  %node_.i15 = getelementptr inbounds i8, ptr %this, i64 56
  %22 = load ptr, ptr %node_.i15, align 8
  %23 = load atomic i64, ptr %22 acquire, align 8
  %atomic-temp.i.0.i.i.i = inttoptr i64 %23 to ptr
  store ptr %atomic-temp.i.0.i.i.i, ptr %node_.i15, align 8
  ret void
}